target datalayout = "e-m:e-p270:32:32-p271:32:32-p272:64:64-i64:64-i128:128-f80:128-n8:16:32:64-S128"
target triple = "x86_64-pc-linux-gnu"

%"class.LIEF::BinaryStream" = type { ptr, i64, i8, i32 }

; Function Attrs: mustprogress nounwind uwtable
define linkonce_odr hidden noundef nonnull align 8 dereferenceable(24) ptr @_ZNK4LIEF12BinaryStream13increment_posEm(ptr noundef nonnull align 8 dereferenceable(24) %0, i64 noundef %1) #0 comdat align 2 {
  %3 = alloca ptr, align 8
  %4 = alloca i64, align 8
  store ptr %0, ptr %3, align 8, !tbaa !3
  store i64 %1, ptr %4, align 8, !tbaa !13
  %5 = load ptr, ptr %3, align 8
  %6 = load i64, ptr %4, align 8, !tbaa !13
  %7 = getelementptr inbounds nuw %"class.LIEF::BinaryStream", ptr %5, i32 0, i32 1
  %8 = load i64, ptr %7, align 8, !tbaa !50
  %9 = add i64 %8, %6
  store i64 %9, ptr %7, align 8, !tbaa !50
  ret ptr %5
}

; Function Attrs: mustprogress nounwind uwtable
define linkonce_odr hidden noundef i64 @_ZNK4LIEF12BinaryStream3posEv(ptr noundef nonnull align 8 dereferenceable(24) %0) #0 comdat align 2 {
  %2 = alloca ptr, align 8
  store ptr %0, ptr %2, align 8, !tbaa !3
  %3 = load ptr, ptr %2, align 8
  %4 = getelementptr inbounds nuw %"class.LIEF::BinaryStream", ptr %3, i32 0, i32 1
  %5 = load i64, ptr %4, align 8, !tbaa !50
  ret i64 %5
}

; Function Attrs: mustprogress nounwind uwtable
define noundef i64 @_ZNK4LIEF12BinaryStream5alignEm(ptr noundef nonnull align 8 dereferenceable(24) %0, i64 noundef %1) #0 align 2 {
  %3 = alloca i64, align 8
  %4 = alloca ptr, align 8
  %5 = alloca i64, align 8
  %6 = alloca i64, align 8
  %7 = alloca i32, align 4
  %8 = alloca i64, align 8
  store ptr %0, ptr %4, align 8, !tbaa !3
  store i64 %1, ptr %5, align 8, !tbaa !13
  %9 = load ptr, ptr %4, align 8
  %10 = load i64, ptr %5, align 8, !tbaa !13
  %11 = icmp eq i64 %10, 0
  br i1 %11, label %12, label %13

12:                                               ; preds = %2
  store i64 0, ptr %3, align 8
  br label %28

13:                                               ; preds = %2
  call void @llvm.lifetime.start.p0(i64 8, ptr %6) #12
  %14 = call noundef i64 @_ZNK4LIEF12BinaryStream3posEv(ptr noundef nonnull align 8 dereferenceable(24) %9)
  %15 = load i64, ptr %5, align 8, !tbaa !13
  %16 = urem i64 %14, %15
  store i64 %16, ptr %6, align 8, !tbaa !13
  %17 = load i64, ptr %6, align 8, !tbaa !13
  %18 = icmp eq i64 %17, 0
  br i1 %18, label %19, label %20

19:                                               ; preds = %13
  store i64 0, ptr %3, align 8
  store i32 1, ptr %7, align 4
  br label %27

20:                                               ; preds = %13
  call void @llvm.lifetime.start.p0(i64 8, ptr %8) #12
  %21 = load i64, ptr %5, align 8, !tbaa !13
  %22 = load i64, ptr %6, align 8, !tbaa !13
  %23 = sub i64 %21, %22
  store i64 %23, ptr %8, align 8, !tbaa !13
  %24 = load i64, ptr %8, align 8, !tbaa !13
  %25 = call noundef nonnull align 8 dereferenceable(24) ptr @_ZNK4LIEF12BinaryStream13increment_posEm(ptr noundef nonnull align 8 dereferenceable(24) %9, i64 noundef %24)
  %26 = load i64, ptr %8, align 8, !tbaa !13
  store i64 %26, ptr %3, align 8
  store i32 1, ptr %7, align 4
  call void @llvm.lifetime.end.p0(i64 8, ptr %8) #12
  br label %27

27:                                               ; preds = %20, %19
  call void @llvm.lifetime.end.p0(i64 8, ptr %6) #12
  br label %28

28:                                               ; preds = %27, %12
  %29 = load i64, ptr %3, align 8
  ret i64 %29
}