; Function Attrs: mustprogress nofree norecurse nosync nounwind willreturn memory(argmem: readwrite) uwtable
define noundef i64 @_ZNK4LIEF12BinaryStream5alignEm(ptr noundef nonnull align 8 captures(none) dereferenceable(24) %0, i64 noundef %1) local_unnamed_addr #4 align 2 {
  %3 = icmp eq i64 %1, 0
  br i1 %3, label %12, label %4

4:                                                ; preds = %2
  %5 = getelementptr inbounds nuw i8, ptr %0, i64 8
  %6 = load i64, ptr %5, align 8, !tbaa !3
  %7 = urem i64 %6, %1
  %8 = icmp eq i64 %7, 0
  br i1 %8, label %12, label %9

9:                                                ; preds = %4
  %10 = sub i64 %1, %7
  %11 = add i64 %10, %6
  store i64 %11, ptr %5, align 8, !tbaa !3
  br label %12

12:                                               ; preds = %9, %4, %2
  %.0 = phi i64 [ 0, %2 ], [ %10, %9 ], [ 0, %4 ]
  ret i64 %.0
}